target datalayout = "e-m:e-p270:32:32-p271:32:32-p272:64:64-i64:64-i128:128-f80:128-n8:16:32:64-S128"
target triple = "x86_64-pc-linux-gnu"

%"class.icu_77::UObject" = type { ptr }
%"class.icu_77::UnicodeString" = type { %"class.icu_77::Replaceable", %"union.icu_77::UnicodeString::StackBufferOrFields" }
%"class.icu_77::Replaceable" = type { %"class.icu_77::UObject" }
%"union.icu_77::UnicodeString::StackBufferOrFields" = type { %struct.anon.0, [32 x i8] }
%struct.anon.0 = type { i16, i32, i32, ptr }
%"class.icu_77::ConstChar16Ptr" = type { ptr }
%"class.icu_77::Char16Ptr" = type { ptr }

; Function Attrs: inlinehint mustprogress nounwind uwtable
define linkonce_odr void @_ZN6icu_779Char16PtrD2Ev(ptr noundef nonnull align 8 dereferenceable(8) %0) unnamed_addr #5 comdat align 2 {
  %2 = alloca ptr, align 8
  store ptr %0, ptr %2, align 8, !tbaa !26
  %3 = load ptr, ptr %2, align 8
  %4 = getelementptr inbounds nuw %"class.icu_77::Char16Ptr", ptr %3, i32 0, i32 0
  %5 = load ptr, ptr %4, align 8, !tbaa !28
  call void asm sideeffect "", "rm,~{memory},~{dirflag},~{fpsr},~{flags}"(ptr %5) #7, !srcloc !30
  ret void
}

; Function Attrs: inlinehint mustprogress nounwind uwtable
define linkonce_odr void @_ZN6icu_779Char16PtrC2EPDs(ptr noundef nonnull align 8 dereferenceable(8) %0, ptr noundef %1) unnamed_addr #5 comdat align 2 {
  %3 = alloca ptr, align 8
  %4 = alloca ptr, align 8
  store ptr %0, ptr %3, align 8, !tbaa !26
  store ptr %1, ptr %4, align 8, !tbaa !15
  %5 = load ptr, ptr %3, align 8
  %6 = getelementptr inbounds nuw %"class.icu_77::Char16Ptr", ptr %5, i32 0, i32 0
  %7 = load ptr, ptr %4, align 8, !tbaa !15
  store ptr %7, ptr %6, align 8, !tbaa !28
  ret void
}

; Function Attrs: inlinehint mustprogress nounwind uwtable
define linkonce_odr void @_ZN6icu_7714ConstChar16PtrD2Ev(ptr noundef nonnull align 8 dereferenceable(8) %0) unnamed_addr #5 comdat align 2 {
  %2 = alloca ptr, align 8
  store ptr %0, ptr %2, align 8, !tbaa !21
  %3 = load ptr, ptr %2, align 8
  %4 = getelementptr inbounds nuw %"class.icu_77::ConstChar16Ptr", ptr %3, i32 0, i32 0
  %5 = load ptr, ptr %4, align 8, !tbaa !23
  call void asm sideeffect "", "rm,~{memory},~{dirflag},~{fpsr},~{flags}"(ptr %5) #7, !srcloc !25
  ret void
}

; Function Attrs: inlinehint mustprogress nounwind uwtable
define linkonce_odr void @_ZN6icu_7714ConstChar16PtrC2EPKDs(ptr noundef nonnull align 8 dereferenceable(8) %0, ptr noundef %1) unnamed_addr #5 comdat align 2 {
  %3 = alloca ptr, align 8
  %4 = alloca ptr, align 8
  store ptr %0, ptr %3, align 8, !tbaa !21
  store ptr %1, ptr %4, align 8, !tbaa !15
  %5 = load ptr, ptr %3, align 8
  %6 = getelementptr inbounds nuw %"class.icu_77::ConstChar16Ptr", ptr %5, i32 0, i32 0
  %7 = load ptr, ptr %4, align 8, !tbaa !15
  store ptr %7, ptr %6, align 8, !tbaa !23
  ret void
}

; Function Attrs: inlinehint mustprogress nounwind uwtable
define internal noundef signext i8 @_ZL9U_FAILURE10UErrorCode(i32 noundef %0) #5 {
  %2 = alloca i32, align 4
  store i32 %0, ptr %2, align 4, !tbaa !13
  %3 = load i32, ptr %2, align 4, !tbaa !13
  %4 = icmp sgt i32 %3, 0
  %5 = zext i1 %4 to i8
  ret i8 %5
}

; Function Attrs: mustprogress uwtable
define i32 @udatpg_getBestPatternWithOptions_77(ptr noundef %0, ptr noundef %1, i32 noundef %2, i32 noundef %3, ptr noundef %4, i32 noundef %5, ptr noundef %6) #0 personality ptr @__gxx_personality_v0 {
  %8 = alloca i32, align 4
  %9 = alloca ptr, align 8
  %10 = alloca ptr, align 8
  %11 = alloca i32, align 4
  %12 = alloca i32, align 4
  %13 = alloca ptr, align 8
  %14 = alloca i32, align 4
  %15 = alloca ptr, align 8
  %16 = alloca %"class.icu_77::UnicodeString", align 8
  %17 = alloca %"class.icu_77::ConstChar16Ptr", align 8
  %18 = alloca ptr, align 8
  %19 = alloca i32, align 4
  %20 = alloca %"class.icu_77::UnicodeString", align 8
  %21 = alloca %"class.icu_77::Char16Ptr", align 8
  store ptr %0, ptr %9, align 8, !tbaa !9
  store ptr %1, ptr %10, align 8, !tbaa !15
  store i32 %2, ptr %11, align 4, !tbaa !17
  store i32 %3, ptr %12, align 4, !tbaa !19
  store ptr %4, ptr %13, align 8, !tbaa !15
  store i32 %5, ptr %14, align 4, !tbaa !17
  store ptr %6, ptr %15, align 8, !tbaa !8
  %22 = load ptr, ptr %15, align 8, !tbaa !8
  %23 = load i32, ptr %22, align 4, !tbaa !13
  %24 = call noundef signext i8 @_ZL9U_FAILURE10UErrorCode(i32 noundef %23)
  %25 = icmp ne i8 %24, 0
  br i1 %25, label %26, label %27

26:                                               ; preds = %7
  store i32 0, ptr %8, align 4
  br label %71

27:                                               ; preds = %7
  %28 = load ptr, ptr %10, align 8, !tbaa !15
  %29 = icmp eq ptr %28, null
  br i1 %29, label %30, label %35

30:                                               ; preds = %27
  %31 = load i32, ptr %11, align 4, !tbaa !17
  %32 = icmp ne i32 %31, 0
  br i1 %32, label %33, label %35

33:                                               ; preds = %30
  %34 = load ptr, ptr %15, align 8, !tbaa !8
  store i32 1, ptr %34, align 4, !tbaa !13
  store i32 0, ptr %8, align 4
  br label %71

35:                                               ; preds = %30, %27
  call void @llvm.lifetime.start.p0(i64 64, ptr %16) #7
  %36 = load i32, ptr %11, align 4, !tbaa !17
  %37 = icmp slt i32 %36, 0
  %38 = zext i1 %37 to i8
  %39 = load ptr, ptr %10, align 8, !tbaa !15
  call void @_ZN6icu_7714ConstChar16PtrC2EPKDs(ptr noundef nonnull align 8 dereferenceable(8) %17, ptr noundef %39)
  %40 = load i32, ptr %11, align 4, !tbaa !17
  invoke void @_ZN6icu_7713UnicodeStringC1EaNS_14ConstChar16PtrEi(ptr noundef nonnull align 8 dereferenceable(64) %16, i8 noundef signext %38, ptr noundef %17, i32 noundef %40)
          to label %41 unwind label %52

41:                                               ; preds = %35
  call void @_ZN6icu_7714ConstChar16PtrD2Ev(ptr noundef nonnull align 8 dereferenceable(8) %17) #7
  call void @llvm.lifetime.start.p0(i64 64, ptr %20) #7
  %42 = load ptr, ptr %9, align 8, !tbaa !9
  %43 = load i32, ptr %12, align 4, !tbaa !19
  %44 = load ptr, ptr %15, align 8, !tbaa !8
  invoke void @_ZN6icu_7724DateTimePatternGenerator14getBestPatternERKNS_13UnicodeStringE28UDateTimePatternMatchOptionsR10UErrorCode(ptr dead_on_unwind writable sret(%"class.icu_77::UnicodeString") align 8 %20, ptr noundef nonnull align 8 dereferenceable(4796) %42, ptr noundef nonnull align 8 dereferenceable(64) %16, i32 noundef %43, ptr noundef nonnull align 4 dereferenceable(4) %44)
          to label %45 unwind label %56

45:                                               ; preds = %41
  %46 = load ptr, ptr %13, align 8, !tbaa !15
  invoke void @_ZN6icu_779Char16PtrC2EPDs(ptr noundef nonnull align 8 dereferenceable(8) %21, ptr noundef %46)
          to label %47 unwind label %60

47:                                               ; preds = %45
  %48 = load i32, ptr %14, align 4, !tbaa !17
  %49 = load ptr, ptr %15, align 8, !tbaa !8
  %50 = invoke noundef i32 @_ZNK6icu_7713UnicodeString7extractENS_9Char16PtrEiR10UErrorCode(ptr noundef nonnull align 8 dereferenceable(64) %20, ptr noundef %21, i32 noundef %48, ptr noundef nonnull align 4 dereferenceable(4) %49)
          to label %51 unwind label %64

51:                                               ; preds = %47
  store i32 %50, ptr %8, align 4
  call void @_ZN6icu_779Char16PtrD2Ev(ptr noundef nonnull align 8 dereferenceable(8) %21) #7
  call void @_ZN6icu_7713UnicodeStringD1Ev(ptr noundef nonnull align 8 dereferenceable(64) %20) #7
  call void @llvm.lifetime.end.p0(i64 64, ptr %20) #7
  call void @_ZN6icu_7713UnicodeStringD1Ev(ptr noundef nonnull align 8 dereferenceable(64) %16) #7
  call void @llvm.lifetime.end.p0(i64 64, ptr %16) #7
  br label %71

52:                                               ; preds = %35
  %53 = landingpad { ptr, i32 }
          cleanup
  %54 = extractvalue { ptr, i32 } %53, 0
  store ptr %54, ptr %18, align 8
  %55 = extractvalue { ptr, i32 } %53, 1
  store i32 %55, ptr %19, align 4
  call void @_ZN6icu_7714ConstChar16PtrD2Ev(ptr noundef nonnull align 8 dereferenceable(8) %17) #7
  br label %70

56:                                               ; preds = %41
  %57 = landingpad { ptr, i32 }
          cleanup
  %58 = extractvalue { ptr, i32 } %57, 0
  store ptr %58, ptr %18, align 8
  %59 = extractvalue { ptr, i32 } %57, 1
  store i32 %59, ptr %19, align 4
  br label %69

60:                                               ; preds = %45
  %61 = landingpad { ptr, i32 }
          cleanup
  %62 = extractvalue { ptr, i32 } %61, 0
  store ptr %62, ptr %18, align 8
  %63 = extractvalue { ptr, i32 } %61, 1
  store i32 %63, ptr %19, align 4
  br label %68

64:                                               ; preds = %47
  %65 = landingpad { ptr, i32 }
          cleanup
  %66 = extractvalue { ptr, i32 } %65, 0
  store ptr %66, ptr %18, align 8
  %67 = extractvalue { ptr, i32 } %65, 1
  store i32 %67, ptr %19, align 4
  call void @_ZN6icu_779Char16PtrD2Ev(ptr noundef nonnull align 8 dereferenceable(8) %21) #7
  br label %68

68:                                               ; preds = %64, %60
  call void @_ZN6icu_7713UnicodeStringD1Ev(ptr noundef nonnull align 8 dereferenceable(64) %20) #7
  br label %69

69:                                               ; preds = %68, %56
  call void @llvm.lifetime.end.p0(i64 64, ptr %20) #7
  call void @_ZN6icu_7713UnicodeStringD1Ev(ptr noundef nonnull align 8 dereferenceable(64) %16) #7
  br label %70

70:                                               ; preds = %69, %52
  call void @llvm.lifetime.end.p0(i64 64, ptr %16) #7
  br label %73

71:                                               ; preds = %51, %33, %26
  %72 = load i32, ptr %8, align 4
  ret i32 %72

73:                                               ; preds = %70
  %74 = load ptr, ptr %18, align 8
  %75 = load i32, ptr %19, align 4
  %76 = insertvalue { ptr, i32 } poison, ptr %74, 0
  %77 = insertvalue { ptr, i32 } %76, i32 %75, 1
  resume { ptr, i32 } %77
}