; Function Attrs: mustprogress uwtable
define noundef i32 @udatpg_getBestPatternWithOptions_77(ptr noundef %0, ptr noundef %1, i32 noundef %2, i32 noundef %3, ptr noundef %4, i32 noundef %5, ptr noundef %6) local_unnamed_addr #0 personality ptr @__gxx_personality_v0 {
  %8 = alloca %"class.icu_77::UnicodeString", align 8
  %9 = alloca %"class.icu_77::ConstChar16Ptr", align 8
  %10 = alloca %"class.icu_77::UnicodeString", align 8
  %11 = alloca %"class.icu_77::Char16Ptr", align 8
  %12 = load i32, ptr %6, align 4, !tbaa !6
  %13 = icmp slt i32 %12, 1
  br i1 %13, label %14, label %36

14:                                               ; preds = %7
  %15 = icmp eq ptr %1, null
  %16 = icmp ne i32 %2, 0
  %or.cond = and i1 %15, %16
  br i1 %or.cond, label %17, label %18

17:                                               ; preds = %14
  store i32 1, ptr %6, align 4, !tbaa !6
  br label %36

18:                                               ; preds = %14
  call void @llvm.lifetime.start.p0(i64 64, ptr nonnull %8) #5
  %.lobit = lshr i32 %2, 31
  %19 = trunc nuw nsw i32 %.lobit to i8
  store ptr %1, ptr %9, align 8, !tbaa !9
  invoke void @_ZN6icu_7713UnicodeStringC1EaNS_14ConstChar16PtrEi(ptr noundef nonnull align 8 dereferenceable(64) %8, i8 noundef signext %19, ptr noundef nonnull %9, i32 noundef %2)
          to label %20 unwind label %26

20:                                               ; preds = %18
  %21 = load ptr, ptr %9, align 8, !tbaa !9
  call void asm sideeffect "", "rm,~{memory},~{dirflag},~{fpsr},~{flags}"(ptr %21) #5, !srcloc !13
  call void @llvm.lifetime.start.p0(i64 64, ptr nonnull %10) #5
  invoke void @_ZN6icu_7724DateTimePatternGenerator14getBestPatternERKNS_13UnicodeStringE28UDateTimePatternMatchOptionsR10UErrorCode(ptr dead_on_unwind nonnull writable sret(%"class.icu_77::UnicodeString") align 8 %10, ptr noundef nonnull align 8 dereferenceable(4796) %0, ptr noundef nonnull align 8 dereferenceable(64) %8, i32 noundef %3, ptr noundef nonnull align 4 dereferenceable(4) %6)
          to label %22 unwind label %29

22:                                               ; preds = %20
  store ptr %4, ptr %11, align 8, !tbaa !14
  %23 = invoke noundef i32 @_ZNK6icu_7713UnicodeString7extractENS_9Char16PtrEiR10UErrorCode(ptr noundef nonnull align 8 dereferenceable(64) %10, ptr noundef nonnull %11, i32 noundef %5, ptr noundef nonnull align 4 dereferenceable(4) %6)
          to label %24 unwind label %31

24:                                               ; preds = %22
  %25 = load ptr, ptr %11, align 8, !tbaa !14
  call void asm sideeffect "", "rm,~{memory},~{dirflag},~{fpsr},~{flags}"(ptr %25) #5, !srcloc !16
  call void @_ZN6icu_7713UnicodeStringD1Ev(ptr noundef nonnull align 8 dereferenceable(64) %10) #5
  call void @llvm.lifetime.end.p0(i64 64, ptr nonnull %10) #5
  call void @_ZN6icu_7713UnicodeStringD1Ev(ptr noundef nonnull align 8 dereferenceable(64) %8) #5
  call void @llvm.lifetime.end.p0(i64 64, ptr nonnull %8) #5
  br label %36

26:                                               ; preds = %18
  %27 = landingpad { ptr, i32 }
          cleanup
  %28 = load ptr, ptr %9, align 8, !tbaa !9
  call void asm sideeffect "", "rm,~{memory},~{dirflag},~{fpsr},~{flags}"(ptr %28) #5, !srcloc !13
  br label %35

29:                                               ; preds = %20
  %30 = landingpad { ptr, i32 }
          cleanup
  br label %34

31:                                               ; preds = %22
  %32 = landingpad { ptr, i32 }
          cleanup
  %33 = load ptr, ptr %11, align 8, !tbaa !14
  call void asm sideeffect "", "rm,~{memory},~{dirflag},~{fpsr},~{flags}"(ptr %33) #5, !srcloc !16
  call void @_ZN6icu_7713UnicodeStringD1Ev(ptr noundef nonnull align 8 dereferenceable(64) %10) #5
  br label %34

34:                                               ; preds = %31, %29
  %.pn = phi { ptr, i32 } [ %32, %31 ], [ %30, %29 ]
  call void @llvm.lifetime.end.p0(i64 64, ptr nonnull %10) #5
  call void @_ZN6icu_7713UnicodeStringD1Ev(ptr noundef nonnull align 8 dereferenceable(64) %8) #5
  br label %35

35:                                               ; preds = %34, %26
  %.pn.pn = phi { ptr, i32 } [ %.pn, %34 ], [ %27, %26 ]
  call void @llvm.lifetime.end.p0(i64 64, ptr nonnull %8) #5
  resume { ptr, i32 } %.pn.pn

36:                                               ; preds = %7, %24, %17
  %.018 = phi i32 [ 0, %17 ], [ %23, %24 ], [ 0, %7 ]
  ret i32 %.018
}